; ModuleID = '21/1918.c'
source_filename = "21/1918.c"
target datalayout = "e-m:e-p270:32:32-p271:32:32-p272:64:64-i64:64-f80:128-n8:16:32:64-S128"
target triple = "x86_64-pc-linux-gnu"

@.str = private unnamed_addr constant [3 x i8] c"%d\00", align 1
@.str.1 = private unnamed_addr constant [2 x i8] c",\00", align 1
@.str.2 = private unnamed_addr constant [2 x i8] c"\0A\00", align 1

; Function Attrs: noinline nounwind uwtable
define dso_local i32 @main() #0 {
  %1 = alloca i32, align 4
  %2 = alloca i32, align 4
  %3 = alloca i32, align 4
  %4 = alloca i32, align 4
  %5 = alloca i32, align 4
  %6 = alloca [300 x i32], align 16
  %7 = alloca i32, align 4
  %8 = alloca double, align 8
  %9 = alloca double, align 8
  %10 = alloca double, align 8
  store i32 0, i32* %1, align 4
  store i32 0, i32* %3, align 4
  %11 = call i32 (i8*, ...) @__isoc99_scanf(i8* getelementptr inbounds ([3 x i8], [3 x i8]* @.str, i64 0, i64 0), i32* %2)
  store i32 0, i32* %4, align 4
  br label %12

12:                                               ; preds = %21, %0
  %13 = load i32, i32* %4, align 4
  %14 = load i32, i32* %2, align 4
  %15 = icmp slt i32 %13, %14
  br i1 %15, label %16, label %24

16:                                               ; preds = %12
  %17 = load i32, i32* %4, align 4
  %18 = sext i32 %17 to i64
  %19 = getelementptr inbounds [300 x i32], [300 x i32]* %6, i64 0, i64 %18
  %20 = call i32 (i8*, ...) @__isoc99_scanf(i8* getelementptr inbounds ([3 x i8], [3 x i8]* @.str, i64 0, i64 0), i32* %19)
  br label %21

21:                                               ; preds = %16
  %22 = load i32, i32* %4, align 4
  %23 = add nsw i32 %22, 1
  store i32 %23, i32* %4, align 4
  br label %12

24:                                               ; preds = %12
  store i32 0, i32* %4, align 4
  br label %25

25:                                               ; preds = %71, %24
  %26 = load i32, i32* %4, align 4
  %27 = load i32, i32* %2, align 4
  %28 = icmp slt i32 %26, %27
  br i1 %28, label %29, label %74

29:                                               ; preds = %25
  store i32 0, i32* %5, align 4
  br label %30

30:                                               ; preds = %67, %29
  %31 = load i32, i32* %5, align 4
  %32 = load i32, i32* %2, align 4
  %33 = load i32, i32* %4, align 4
  %34 = sub nsw i32 %32, %33
  %35 = sub nsw i32 %34, 1
  %36 = icmp slt i32 %31, %35
  br i1 %36, label %37, label %70

37:                                               ; preds = %30
  %38 = load i32, i32* %5, align 4
  %39 = sext i32 %38 to i64
  %40 = getelementptr inbounds [300 x i32], [300 x i32]* %6, i64 0, i64 %39
  %41 = load i32, i32* %40, align 4
  %42 = load i32, i32* %5, align 4
  %43 = add nsw i32 %42, 1
  %44 = sext i32 %43 to i64
  %45 = getelementptr inbounds [300 x i32], [300 x i32]* %6, i64 0, i64 %44
  %46 = load i32, i32* %45, align 4
  %47 = icmp sgt i32 %41, %46
  br i1 %47, label %48, label %66

48:                                               ; preds = %37
  %49 = load i32, i32* %5, align 4
  %50 = sext i32 %49 to i64
  %51 = getelementptr inbounds [300 x i32], [300 x i32]* %6, i64 0, i64 %50
  %52 = load i32, i32* %51, align 4
  store i32 %52, i32* %7, align 4
  %53 = load i32, i32* %5, align 4
  %54 = add nsw i32 %53, 1
  %55 = sext i32 %54 to i64
  %56 = getelementptr inbounds [300 x i32], [300 x i32]* %6, i64 0, i64 %55
  %57 = load i32, i32* %56, align 4
  %58 = load i32, i32* %5, align 4
  %59 = sext i32 %58 to i64
  %60 = getelementptr inbounds [300 x i32], [300 x i32]* %6, i64 0, i64 %59
  store i32 %57, i32* %60, align 4
  %61 = load i32, i32* %7, align 4
  %62 = load i32, i32* %5, align 4
  %63 = add nsw i32 %62, 1
  %64 = sext i32 %63 to i64
  %65 = getelementptr inbounds [300 x i32], [300 x i32]* %6, i64 0, i64 %64
  store i32 %61, i32* %65, align 4
  br label %66

66:                                               ; preds = %48, %37
  br label %67

67:                                               ; preds = %66
  %68 = load i32, i32* %5, align 4
  %69 = add nsw i32 %68, 1
  store i32 %69, i32* %5, align 4
  br label %30

70:                                               ; preds = %30
  br label %71

71:                                               ; preds = %70
  %72 = load i32, i32* %4, align 4
  %73 = add nsw i32 %72, 1
  store i32 %73, i32* %4, align 4
  br label %25

74:                                               ; preds = %25
  store double 0.000000e+00, double* %8, align 8
  store i32 0, i32* %4, align 4
  br label %75

75:                                               ; preds = %87, %74
  %76 = load i32, i32* %4, align 4
  %77 = load i32, i32* %2, align 4
  %78 = icmp slt i32 %76, %77
  br i1 %78, label %79, label %90

79:                                               ; preds = %75
  %80 = load i32, i32* %4, align 4
  %81 = sext i32 %80 to i64
  %82 = getelementptr inbounds [300 x i32], [300 x i32]* %6, i64 0, i64 %81
  %83 = load i32, i32* %82, align 4
  %84 = sitofp i32 %83 to double
  %85 = load double, double* %8, align 8
  %86 = fadd double %85, %84
  store double %86, double* %8, align 8
  br label %87

87:                                               ; preds = %79
  %88 = load i32, i32* %4, align 4
  %89 = add nsw i32 %88, 1
  store i32 %89, i32* %4, align 4
  br label %75

90:                                               ; preds = %75
  %91 = load double, double* %8, align 8
  %92 = load i32, i32* %2, align 4
  %93 = sitofp i32 %92 to double
  %94 = fdiv double %91, %93
  store double %94, double* %8, align 8
  store double 0.000000e+00, double* %9, align 8
  store i32 0, i32* %4, align 4
  br label %95

95:                                               ; preds = %119, %90
  %96 = load i32, i32* %4, align 4
  %97 = load i32, i32* %2, align 4
  %98 = icmp slt i32 %96, %97
  br i1 %98, label %99, label %122

99:                                               ; preds = %95
  %100 = load i32, i32* %4, align 4
  %101 = sext i32 %100 to i64
  %102 = getelementptr inbounds [300 x i32], [300 x i32]* %6, i64 0, i64 %101
  %103 = load i32, i32* %102, align 4
  %104 = sitofp i32 %103 to double
  %105 = load double, double* %8, align 8
  %106 = fsub double %104, %105
  store double %106, double* %10, align 8
  %107 = load double, double* %10, align 8
  %108 = fcmp olt double %107, 0.000000e+00
  br i1 %108, label %109, label %112

109:                                              ; preds = %99
  %110 = load double, double* %10, align 8
  %111 = fneg double %110
  store double %111, double* %10, align 8
  br label %112

112:                                              ; preds = %109, %99
  %113 = load double, double* %10, align 8
  %114 = load double, double* %9, align 8
  %115 = fcmp ogt double %113, %114
  br i1 %115, label %116, label %118

116:                                              ; preds = %112
  %117 = load double, double* %10, align 8
  store double %117, double* %9, align 8
  br label %118

118:                                              ; preds = %116, %112
  br label %119

119:                                              ; preds = %118
  %120 = load i32, i32* %4, align 4
  %121 = add nsw i32 %120, 1
  store i32 %121, i32* %4, align 4
  br label %95

122:                                              ; preds = %95
  store i32 0, i32* %4, align 4
  br label %123

123:                                              ; preds = %158, %122
  %124 = load i32, i32* %4, align 4
  %125 = load i32, i32* %2, align 4
  %126 = icmp slt i32 %124, %125
  br i1 %126, label %127, label %161

127:                                              ; preds = %123
  %128 = load i32, i32* %4, align 4
  %129 = sext i32 %128 to i64
  %130 = getelementptr inbounds [300 x i32], [300 x i32]* %6, i64 0, i64 %129
  %131 = load i32, i32* %130, align 4
  %132 = sitofp i32 %131 to double
  %133 = load double, double* %8, align 8
  %134 = fsub double %132, %133
  store double %134, double* %10, align 8
  %135 = load double, double* %10, align 8
  %136 = fcmp olt double %135, 0.000000e+00
  br i1 %136, label %137, label %140

137:                                              ; preds = %127
  %138 = load double, double* %10, align 8
  %139 = fneg double %138
  store double %139, double* %10, align 8
  br label %140

140:                                              ; preds = %137, %127
  %141 = load double, double* %9, align 8
  %142 = load double, double* %10, align 8
  %143 = fcmp oeq double %141, %142
  br i1 %143, label %144, label %157

144:                                              ; preds = %140
  %145 = load i32, i32* %3, align 4
  %146 = icmp sgt i32 %145, 0
  br i1 %146, label %147, label %149

147:                                              ; preds = %144
  %148 = call i32 (i8*, ...) @printf(i8* getelementptr inbounds ([2 x i8], [2 x i8]* @.str.1, i64 0, i64 0))
  br label %149

149:                                              ; preds = %147, %144
  %150 = load i32, i32* %4, align 4
  %151 = sext i32 %150 to i64
  %152 = getelementptr inbounds [300 x i32], [300 x i32]* %6, i64 0, i64 %151
  %153 = load i32, i32* %152, align 4
  %154 = call i32 (i8*, ...) @printf(i8* getelementptr inbounds ([3 x i8], [3 x i8]* @.str, i64 0, i64 0), i32 %153)
  %155 = load i32, i32* %3, align 4
  %156 = add nsw i32 %155, 1
  store i32 %156, i32* %3, align 4
  br label %157

157:                                              ; preds = %149, %140
  br label %158

158:                                              ; preds = %157
  %159 = load i32, i32* %4, align 4
  %160 = add nsw i32 %159, 1
  store i32 %160, i32* %4, align 4
  br label %123

161:                                              ; preds = %123
  %162 = call i32 (i8*, ...) @printf(i8* getelementptr inbounds ([2 x i8], [2 x i8]* @.str.2, i64 0, i64 0))
  ret i32 0
}

declare dso_local i32 @__isoc99_scanf(i8*, ...) #1

declare dso_local i32 @printf(i8*, ...) #1


!llvm.module.flags = !{!0}
!llvm.ident = !{!1}

!0 = !{i32 1, !"wchar_size", i32 4}
!1 = !{!"clang version 10.0.0-4ubuntu1 "}
